target datalayout = "e-m:e-p270:32:32-p271:32:32-p272:64:64-i64:64-i128:128-f80:128-n8:16:32:64-S128"
target triple = "x86_64-pc-linux-gnu"

%struct.strbuf = type { i64, i64, ptr }
%struct.object_id = type { [32 x i8], i32 }
%struct.image = type { %struct.strbuf, ptr, i64, i64 }
%struct.apply_state = type { ptr, %struct.lock_file, i32, i32, i32, i32, i32, i32, i32, i32, i32, i32, i32, i32, i32, i32, i32, i32, i32, ptr, ptr, i32, i32, ptr, ptr, i32, %struct.strbuf, i32, i32, i32, %struct.string_list, i32, i32, %struct.strset, %struct.strset, i32, i32, %struct.string_list, ptr, ptr, i32, i32, ptr, i32, i32, i32 }
%struct.lock_file = type { ptr }
%struct.strset = type { %struct.strmap }
%struct.strmap = type { %struct.hashmap, ptr, i8 }
%struct.hashmap = type { ptr, ptr, ptr, i32, i32, i32, i32, i8 }
%struct.string_list = type { ptr, i64, i64, i8, ptr }
%struct.repository = type { ptr, ptr, ptr, ptr, ptr, %struct.strmap, %struct.strmap, %struct.repo_path_cache, ptr, ptr, ptr, ptr, %struct.repo_settings, ptr, ptr, ptr, ptr, ptr, ptr, i32, i32, i32, ptr, ptr, i32, i32, i8 }
%struct.repo_path_cache = type { ptr, ptr, ptr, ptr, ptr, ptr, ptr }
%struct.repo_settings = type { i32, i32, i32, i32, i32, i32, i32, i32, i32, i32, i32, i32, ptr, i32, i32, i32, i32, i32, i32, i32, i64, i64, i64 }
%struct.s_mmfile = type { ptr, i64 }
%struct.ll_merge_options = type { i8, i32, i32, i64 }
%struct.s_mmbuffer = type { ptr, i64 }

@.str.69 = private unnamed_addr constant [5 x i8] c"ours\00", align 1
@.str.71 = private unnamed_addr constant [7 x i8] c"theirs\00", align 1
@__const.three_way_merge.merge_opts = private unnamed_addr constant { i8, [3 x i8], i32, i32, [4 x i8], i64 } { i8 0, [3 x i8] zeroinitializer, i32 0, i32 -1, [4 x i8] zeroinitializer, i64 0 }, align 8
@.str.201 = private unnamed_addr constant [5 x i8] c"base\00", align 1
@.str.202 = private unnamed_addr constant [42 x i8] c"Cannot merge binary files: %s (%s vs. %s)\00", align 1
@__const.image_init.empty = private unnamed_addr constant %struct.image { %struct.strbuf { i64 0, i64 0, ptr @strbuf_slopbuf }, ptr null, i64 0, i64 0 }, align 8

; Function Attrs: nounwind uwtable
define internal void @image_init(ptr noundef %0) #0 {
  %2 = alloca ptr, align 8
  %3 = alloca %struct.image, align 8
  store ptr %0, ptr %2, align 8, !tbaa !259
  call void @llvm.lifetime.start.p0(i64 48, ptr %3) #12
  call void @llvm.memcpy.p0.p0.i64(ptr align 8 %3, ptr align 8 @__const.image_init.empty, i64 48, i1 false)
  %4 = load ptr, ptr %2, align 8, !tbaa !259
  call void @llvm.memcpy.p0.p0.i64(ptr align 8 %4, ptr align 8 %3, i64 48, i1 false)
  call void @llvm.lifetime.end.p0(i64 48, ptr %3) #12
  ret void
}

; Function Attrs: nounwind uwtable
define internal void @image_clear(ptr noundef %0) #0 {
  %2 = alloca ptr, align 8
  store ptr %0, ptr %2, align 8, !tbaa !259
  %3 = load ptr, ptr %2, align 8, !tbaa !259
  %4 = getelementptr inbounds nuw %struct.image, ptr %3, i32 0, i32 0
  call void @strbuf_release(ptr noundef %4)
  %5 = load ptr, ptr %2, align 8, !tbaa !259
  %6 = getelementptr inbounds nuw %struct.image, ptr %5, i32 0, i32 1
  %7 = load ptr, ptr %6, align 8, !tbaa !247
  call void @free(ptr noundef %7) #12
  %8 = load ptr, ptr %2, align 8, !tbaa !259
  call void @image_init(ptr noundef %8)
  ret void
}

; Function Attrs: inlinehint nounwind uwtable
define internal i32 @oideq(ptr noundef %0, ptr noundef %1) #3 {
  %3 = alloca ptr, align 8
  %4 = alloca ptr, align 8
  store ptr %0, ptr %3, align 8, !tbaa !268
  store ptr %1, ptr %4, align 8, !tbaa !268
  %5 = load ptr, ptr %3, align 8, !tbaa !268
  %6 = getelementptr inbounds nuw %struct.object_id, ptr %5, i32 0, i32 0
  %7 = getelementptr inbounds [32 x i8], ptr %6, i64 0, i64 0
  %8 = load ptr, ptr %4, align 8, !tbaa !268
  %9 = getelementptr inbounds nuw %struct.object_id, ptr %8, i32 0, i32 0
  %10 = getelementptr inbounds [32 x i8], ptr %9, i64 0, i64 0
  %11 = call i32 @memcmp(ptr noundef %7, ptr noundef %10, i64 noundef 32) #11
  %12 = icmp ne i32 %11, 0
  %13 = xor i1 %12, true
  %14 = zext i1 %13 to i32
  ret i32 %14
}

; Function Attrs: nounwind uwtable
define internal i32 @three_way_merge(ptr noundef %0, ptr noundef %1, ptr noundef %2, ptr noundef %3, ptr noundef %4, ptr noundef %5) #0 {
  %7 = alloca i32, align 4
  %8 = alloca ptr, align 8
  %9 = alloca ptr, align 8
  %10 = alloca ptr, align 8
  %11 = alloca ptr, align 8
  %12 = alloca ptr, align 8
  %13 = alloca ptr, align 8
  %14 = alloca %struct.s_mmfile, align 8
  %15 = alloca %struct.s_mmfile, align 8
  %16 = alloca %struct.s_mmfile, align 8
  %17 = alloca %struct.ll_merge_options, align 8
  %18 = alloca %struct.s_mmbuffer, align 8
  %19 = alloca i32, align 4
  %20 = alloca i32, align 4
  store ptr %0, ptr %8, align 8, !tbaa !4
  store ptr %1, ptr %9, align 8, !tbaa !259
  store ptr %2, ptr %10, align 8, !tbaa !11
  store ptr %3, ptr %11, align 8, !tbaa !268
  store ptr %4, ptr %12, align 8, !tbaa !268
  store ptr %5, ptr %13, align 8, !tbaa !268
  call void @llvm.lifetime.start.p0(i64 16, ptr %14) #12
  call void @llvm.lifetime.start.p0(i64 16, ptr %15) #12
  call void @llvm.lifetime.start.p0(i64 16, ptr %16) #12
  call void @llvm.lifetime.start.p0(i64 24, ptr %17) #12
  call void @llvm.memcpy.p0.p0.i64(ptr align 8 %17, ptr align 8 @__const.three_way_merge.merge_opts, i64 24, i1 false)
  call void @llvm.lifetime.start.p0(i64 16, ptr %18) #12
  call void @llvm.memset.p0.i64(ptr align 8 %18, i8 0, i64 16, i1 false)
  call void @llvm.lifetime.start.p0(i64 4, ptr %19) #12
  %21 = load ptr, ptr %11, align 8, !tbaa !268
  %22 = load ptr, ptr %12, align 8, !tbaa !268
  %23 = call i32 @oideq(ptr noundef %21, ptr noundef %22)
  %24 = icmp ne i32 %23, 0
  br i1 %24, label %25, label %29

25:                                               ; preds = %6
  %26 = load ptr, ptr %9, align 8, !tbaa !259
  %27 = load ptr, ptr %13, align 8, !tbaa !268
  %28 = call i32 @resolve_to(ptr noundef %26, ptr noundef %27)
  store i32 %28, ptr %7, align 4
  store i32 1, ptr %20, align 4
  br label %95

29:                                               ; preds = %6
  %30 = load ptr, ptr %11, align 8, !tbaa !268
  %31 = load ptr, ptr %13, align 8, !tbaa !268
  %32 = call i32 @oideq(ptr noundef %30, ptr noundef %31)
  %33 = icmp ne i32 %32, 0
  br i1 %33, label %39, label %34

34:                                               ; preds = %29
  %35 = load ptr, ptr %12, align 8, !tbaa !268
  %36 = load ptr, ptr %13, align 8, !tbaa !268
  %37 = call i32 @oideq(ptr noundef %35, ptr noundef %36)
  %38 = icmp ne i32 %37, 0
  br i1 %38, label %39, label %43

39:                                               ; preds = %34, %29
  %40 = load ptr, ptr %9, align 8, !tbaa !259
  %41 = load ptr, ptr %12, align 8, !tbaa !268
  %42 = call i32 @resolve_to(ptr noundef %40, ptr noundef %41)
  store i32 %42, ptr %7, align 4
  store i32 1, ptr %20, align 4
  br label %95

43:                                               ; preds = %34
  br label %44

44:                                               ; preds = %43
  %45 = load ptr, ptr %11, align 8, !tbaa !268
  call void @read_mmblob(ptr noundef %14, ptr noundef %45)
  %46 = load ptr, ptr %12, align 8, !tbaa !268
  call void @read_mmblob(ptr noundef %15, ptr noundef %46)
  %47 = load ptr, ptr %13, align 8, !tbaa !268
  call void @read_mmblob(ptr noundef %16, ptr noundef %47)
  %48 = load ptr, ptr %8, align 8, !tbaa !4
  %49 = getelementptr inbounds nuw %struct.apply_state, ptr %48, i32 0, i32 22
  %50 = load i32, ptr %49, align 4, !tbaa !152
  %51 = trunc i32 %50 to i8
  %52 = load i8, ptr %17, align 8
  %53 = and i8 %51, 3
  %54 = shl i8 %53, 1
  %55 = and i8 %52, -7
  %56 = or i8 %55, %54
  store i8 %56, ptr %17, align 8
  %57 = load ptr, ptr %10, align 8, !tbaa !11
  %58 = load ptr, ptr %8, align 8, !tbaa !4
  %59 = getelementptr inbounds nuw %struct.apply_state, ptr %58, i32 0, i32 19
  %60 = load ptr, ptr %59, align 8, !tbaa !27
  %61 = getelementptr inbounds nuw %struct.repository, ptr %60, i32 0, i32 15
  %62 = load ptr, ptr %61, align 8, !tbaa !125
  %63 = call i32 @ll_merge(ptr noundef %18, ptr noundef %57, ptr noundef %14, ptr noundef @.str.201, ptr noundef %15, ptr noundef @.str.69, ptr noundef %16, ptr noundef @.str.71, ptr noundef %62, ptr noundef %17)
  store i32 %63, ptr %19, align 4, !tbaa !39
  %64 = load i32, ptr %19, align 4, !tbaa !39
  %65 = icmp eq i32 %64, 2
  br i1 %65, label %66, label %68

66:                                               ; preds = %44
  %67 = load ptr, ptr %10, align 8, !tbaa !11
  call void (ptr, ...) @warning(ptr noundef @.str.202, ptr noundef %67, ptr noundef @.str.69, ptr noundef @.str.71)
  br label %68

68:                                               ; preds = %66, %44
  %69 = getelementptr inbounds nuw %struct.s_mmfile, ptr %14, i32 0, i32 0
  %70 = load ptr, ptr %69, align 8, !tbaa !274
  call void @free(ptr noundef %70) #12
  %71 = getelementptr inbounds nuw %struct.s_mmfile, ptr %15, i32 0, i32 0
  %72 = load ptr, ptr %71, align 8, !tbaa !274
  call void @free(ptr noundef %72) #12
  %73 = getelementptr inbounds nuw %struct.s_mmfile, ptr %16, i32 0, i32 0
  %74 = load ptr, ptr %73, align 8, !tbaa !274
  call void @free(ptr noundef %74) #12
  %75 = load i32, ptr %19, align 4, !tbaa !39
  %76 = icmp slt i32 %75, 0
  br i1 %76, label %81, label %77

77:                                               ; preds = %68
  %78 = getelementptr inbounds nuw %struct.s_mmbuffer, ptr %18, i32 0, i32 0
  %79 = load ptr, ptr %78, align 8, !tbaa !276
  %80 = icmp ne ptr %79, null
  br i1 %80, label %84, label %81

81:                                               ; preds = %77, %68
  %82 = getelementptr inbounds nuw %struct.s_mmbuffer, ptr %18, i32 0, i32 0
  %83 = load ptr, ptr %82, align 8, !tbaa !276
  call void @free(ptr noundef %83) #12
  store i32 -1, ptr %7, align 4
  store i32 1, ptr %20, align 4
  br label %95

84:                                               ; preds = %77
  %85 = load ptr, ptr %9, align 8, !tbaa !259
  call void @image_clear(ptr noundef %85)
  %86 = load ptr, ptr %9, align 8, !tbaa !259
  %87 = getelementptr inbounds nuw %struct.image, ptr %86, i32 0, i32 0
  %88 = getelementptr inbounds nuw %struct.s_mmbuffer, ptr %18, i32 0, i32 0
  %89 = load ptr, ptr %88, align 8, !tbaa !276
  %90 = getelementptr inbounds nuw %struct.s_mmbuffer, ptr %18, i32 0, i32 1
  %91 = load i64, ptr %90, align 8, !tbaa !278
  %92 = getelementptr inbounds nuw %struct.s_mmbuffer, ptr %18, i32 0, i32 1
  %93 = load i64, ptr %92, align 8, !tbaa !278
  call void @strbuf_attach(ptr noundef %87, ptr noundef %89, i64 noundef %91, i64 noundef %93)
  %94 = load i32, ptr %19, align 4, !tbaa !39
  store i32 %94, ptr %7, align 4
  store i32 1, ptr %20, align 4
  br label %95

95:                                               ; preds = %84, %81, %39, %25
  call void @llvm.lifetime.end.p0(i64 4, ptr %19) #12
  call void @llvm.lifetime.end.p0(i64 16, ptr %18) #12
  call void @llvm.lifetime.end.p0(i64 24, ptr %17) #12
  call void @llvm.lifetime.end.p0(i64 16, ptr %16) #12
  call void @llvm.lifetime.end.p0(i64 16, ptr %15) #12
  call void @llvm.lifetime.end.p0(i64 16, ptr %14) #12
  %96 = load i32, ptr %7, align 4
  ret i32 %96
}