; Function Attrs: nounwind uwtable
define internal fastcc range(i32 -1, -2147483648) i32 @three_way_merge(ptr noundef readonly captures(none) %0, ptr noundef nonnull %1, ptr noundef %2, ptr noundef nonnull %3, ptr noundef nonnull %4, ptr noundef nonnull %5) unnamed_addr #0 {
  %7 = alloca %struct.s_mmfile, align 8
  %8 = alloca %struct.s_mmfile, align 8
  %9 = alloca %struct.s_mmfile, align 8
  %10 = alloca %struct.ll_merge_options, align 8
  %11 = alloca %struct.s_mmbuffer, align 8
  call void @llvm.lifetime.start.p0(i64 16, ptr nonnull %7) #21
  call void @llvm.lifetime.start.p0(i64 16, ptr nonnull %8) #21
  call void @llvm.lifetime.start.p0(i64 16, ptr nonnull %9) #21
  call void @llvm.lifetime.start.p0(i64 24, ptr nonnull %10) #21
  call void @llvm.memcpy.p0.p0.i64(ptr noundef nonnull align 8 dereferenceable(24) %10, ptr noundef nonnull align 8 dereferenceable(24) @__const.three_way_merge.merge_opts, i64 24, i1 false)
  call void @llvm.lifetime.start.p0(i64 16, ptr nonnull %11) #21
  call void @llvm.memset.p0.i64(ptr noundef nonnull align 8 dereferenceable(16) %11, i8 0, i64 16, i1 false)
  %bcmp.i = tail call i32 @bcmp(ptr noundef nonnull readonly dereferenceable(32) %3, ptr noundef nonnull readonly dereferenceable(32) %4, i64 32)
  %.not.i.not = icmp eq i32 %bcmp.i, 0
  br i1 %.not.i.not, label %12, label %13

12:                                               ; preds = %6
  tail call fastcc void @resolve_to(ptr noundef %1, ptr noundef %5)
  br label %43

13:                                               ; preds = %6
  %bcmp.i27 = tail call i32 @bcmp(ptr noundef nonnull readonly dereferenceable(32) %3, ptr noundef nonnull readonly dereferenceable(32) %5, i64 32)
  %.not.i28.not = icmp eq i32 %bcmp.i27, 0
  br i1 %.not.i28.not, label %15, label %14

14:                                               ; preds = %13
  %bcmp.i29 = tail call i32 @bcmp(ptr noundef nonnull readonly dereferenceable(32) %4, ptr noundef nonnull readonly dereferenceable(32) %5, i64 32)
  %.not.i30.not = icmp eq i32 %bcmp.i29, 0
  br i1 %.not.i30.not, label %15, label %16

15:                                               ; preds = %14, %13
  tail call fastcc void @resolve_to(ptr noundef %1, ptr noundef %4)
  br label %43

16:                                               ; preds = %14
  call void @read_mmblob(ptr noundef nonnull %7, ptr noundef nonnull %3) #21
  call void @read_mmblob(ptr noundef nonnull %8, ptr noundef nonnull %4) #21
  call void @read_mmblob(ptr noundef nonnull %9, ptr noundef nonnull %5) #21
  %17 = getelementptr inbounds nuw i8, ptr %0, i64 108
  %18 = load i32, ptr %17, align 4, !tbaa !208
  %19 = trunc i32 %18 to i8
  %20 = shl i8 %19, 1
  %21 = and i8 %20, 6
  store i8 %21, ptr %10, align 8
  %22 = getelementptr inbounds nuw i8, ptr %0, i64 88
  %23 = load ptr, ptr %22, align 8, !tbaa !23
  %24 = getelementptr inbounds nuw i8, ptr %23, i64 384
  %25 = load ptr, ptr %24, align 8, !tbaa !109
  %26 = call i32 @ll_merge(ptr noundef nonnull %11, ptr noundef %2, ptr noundef nonnull %7, ptr noundef nonnull @.str.201, ptr noundef nonnull %8, ptr noundef nonnull @.str.69, ptr noundef nonnull %9, ptr noundef nonnull @.str.71, ptr noundef %25, ptr noundef nonnull %10) #21
  %27 = icmp eq i32 %26, 2
  br i1 %27, label %28, label %29

28:                                               ; preds = %16
  call void (ptr, ...) @warning(ptr noundef nonnull @.str.202, ptr noundef %2, ptr noundef nonnull @.str.69, ptr noundef nonnull @.str.71) #21
  br label %29

29:                                               ; preds = %28, %16
  %30 = load ptr, ptr %7, align 8, !tbaa !258
  call void @free(ptr noundef %30) #21
  %31 = load ptr, ptr %8, align 8, !tbaa !258
  call void @free(ptr noundef %31) #21
  %32 = load ptr, ptr %9, align 8, !tbaa !258
  call void @free(ptr noundef %32) #21
  %33 = icmp sgt i32 %26, -1
  %34 = load ptr, ptr %11, align 8
  %35 = icmp ne ptr %34, null
  %or.cond = select i1 %33, i1 %35, i1 false
  br i1 %or.cond, label %37, label %36

36:                                               ; preds = %29
  call void @free(ptr noundef %34) #21
  br label %43

37:                                               ; preds = %29
  call void @strbuf_release(ptr noundef nonnull %1) #21
  %38 = getelementptr inbounds nuw i8, ptr %1, i64 24
  %39 = load ptr, ptr %38, align 8, !tbaa !172
  call void @free(ptr noundef %39) #21
  call void @llvm.memcpy.p0.p0.i64(ptr noundef nonnull align 8 dereferenceable(48) %1, ptr noundef nonnull align 8 dereferenceable(48) @__const.image_init.empty, i64 48, i1 false)
  %40 = load ptr, ptr %11, align 8, !tbaa !260
  %41 = getelementptr inbounds nuw i8, ptr %11, i64 8
  %42 = load i64, ptr %41, align 8, !tbaa !262
  call void @strbuf_attach(ptr noundef nonnull %1, ptr noundef %40, i64 noundef %42, i64 noundef %42) #21
  br label %43

43:                                               ; preds = %37, %36, %15, %12
  %.0 = phi i32 [ 0, %12 ], [ 0, %15 ], [ %26, %37 ], [ -1, %36 ]
  call void @llvm.lifetime.end.p0(i64 16, ptr nonnull %11) #21
  call void @llvm.lifetime.end.p0(i64 24, ptr nonnull %10) #21
  call void @llvm.lifetime.end.p0(i64 16, ptr nonnull %9) #21
  call void @llvm.lifetime.end.p0(i64 16, ptr nonnull %8) #21
  call void @llvm.lifetime.end.p0(i64 16, ptr nonnull %7) #21
  ret i32 %.0
}